target datalayout = "e-m:e-p270:32:32-p271:32:32-p272:64:64-i64:64-i128:128-f80:128-n8:16:32:64-S128"
target triple = "x86_64-pc-linux-gnu"

%"struct.simdjson::internal::decimal" = type { i32, i32, i8, i8, [768 x i8] }
%"struct.simdjson::internal::adjusted_mantissa" = type <{ i64, i32, [4 x i8] }>

; Function Attrs: mustprogress nounwind uwtable
define linkonce_odr dso_local noundef i32 @_ZN8simdjson8internal13binary_formatIdE10sign_indexEv() #2 comdat align 2 {
  ret i32 63
}

; Function Attrs: mustprogress nounwind uwtable
define linkonce_odr dso_local noundef i32 @_ZN8simdjson8internal13binary_formatIdE22mantissa_explicit_bitsEv() #2 comdat align 2 {
  ret i32 52
}

; Function Attrs: mustprogress uwtable
define linkonce_odr dso_local { i64, i32 } @_ZN8simdjson8internal19parse_long_mantissaINS0_13binary_formatIdEEEENS0_17adjusted_mantissaEPKc(ptr noundef %0) #0 comdat {
  %2 = alloca %"struct.simdjson::internal::adjusted_mantissa", align 8
  %3 = alloca ptr, align 8
  %4 = alloca %"struct.simdjson::internal::decimal", align 4
  %5 = alloca { i64, i32 }, align 8
  store ptr %0, ptr %3, align 8, !tbaa !4
  call void @llvm.lifetime.start.p0(i64 780, ptr %4) #10
  call void @_ZN8simdjson8internal13parse_decimalERPKc(ptr dead_on_unwind writable sret(%"struct.simdjson::internal::decimal") align 4 %4, ptr noundef nonnull align 8 dereferenceable(8) %3) #10
  %6 = call { i64, i32 } @_ZN8simdjson8internal13compute_floatINS0_13binary_formatIdEEEENS0_17adjusted_mantissaERNS0_7decimalE(ptr noundef nonnull align 4 dereferenceable(780) %4)
  store { i64, i32 } %6, ptr %5, align 8
  call void @llvm.memcpy.p0.p0.i64(ptr align 8 %2, ptr align 8 %5, i64 12, i1 false)
  call void @llvm.lifetime.end.p0(i64 780, ptr %4) #10
  %7 = load { i64, i32 }, ptr %2, align 8
  ret { i64, i32 } %7
}

; Function Attrs: mustprogress nounwind uwtable
define linkonce_odr dso_local noundef double @_ZNSt14numeric_limitsIdE6lowestEv() #2 comdat align 2 {
  ret double 0xFFEFFFFFFFFFFFFF
}

; Function Attrs: mustprogress nounwind uwtable
define linkonce_odr dso_local noundef double @_ZNSt14numeric_limitsIdE3maxEv() #2 comdat align 2 {
  ret double 0x7FEFFFFFFFFFFFFF
}

; Function Attrs: mustprogress nounwind uwtable
define dso_local noundef double @_ZN8simdjson8internal10from_charsEPKc(ptr noundef %0) #2 personality ptr @__gxx_personality_v0 {
  %2 = alloca ptr, align 8
  %3 = alloca i8, align 1
  %4 = alloca %"struct.simdjson::internal::adjusted_mantissa", align 8
  %5 = alloca { i64, i32 }, align 8
  %6 = alloca i64, align 8
  %7 = alloca double, align 8
  store ptr %0, ptr %2, align 8, !tbaa !4
  call void @llvm.lifetime.start.p0(i64 1, ptr %3) #10
  %8 = load ptr, ptr %2, align 8, !tbaa !4
  %9 = getelementptr inbounds i8, ptr %8, i64 0
  %10 = load i8, ptr %9, align 1, !tbaa !15
  %11 = sext i8 %10 to i32
  %12 = icmp eq i32 %11, 45
  %13 = zext i1 %12 to i8
  store i8 %13, ptr %3, align 1, !tbaa !11
  %14 = load i8, ptr %3, align 1, !tbaa !11, !range !13, !noundef !14
  %15 = trunc i8 %14 to i1
  br i1 %15, label %16, label %19

16:                                               ; preds = %1
  %17 = load ptr, ptr %2, align 8, !tbaa !4
  %18 = getelementptr inbounds nuw i8, ptr %17, i32 1
  store ptr %18, ptr %2, align 8, !tbaa !4
  br label %19

19:                                               ; preds = %16, %1
  call void @llvm.lifetime.start.p0(i64 16, ptr %4) #10
  %20 = load ptr, ptr %2, align 8, !tbaa !4
  %21 = invoke { i64, i32 } @_ZN8simdjson8internal19parse_long_mantissaINS0_13binary_formatIdEEEENS0_17adjusted_mantissaEPKc(ptr noundef %20)
          to label %22 unwind label %48

22:                                               ; preds = %19
  store { i64, i32 } %21, ptr %5, align 8
  call void @llvm.memcpy.p0.p0.i64(ptr align 8 %4, ptr align 8 %5, i64 12, i1 false)
  call void @llvm.lifetime.start.p0(i64 8, ptr %6) #10
  %23 = getelementptr inbounds nuw %"struct.simdjson::internal::adjusted_mantissa", ptr %4, i32 0, i32 0
  %24 = load i64, ptr %23, align 8, !tbaa !57
  store i64 %24, ptr %6, align 8, !tbaa !21
  %25 = getelementptr inbounds nuw %"struct.simdjson::internal::adjusted_mantissa", ptr %4, i32 0, i32 1
  %26 = load i32, ptr %25, align 8, !tbaa !59
  %27 = sext i32 %26 to i64
  %28 = invoke noundef i32 @_ZN8simdjson8internal13binary_formatIdE22mantissa_explicit_bitsEv()
          to label %29 unwind label %48

29:                                               ; preds = %22
  %30 = zext i32 %28 to i64
  %31 = shl i64 %27, %30
  %32 = load i64, ptr %6, align 8, !tbaa !21
  %33 = or i64 %32, %31
  store i64 %33, ptr %6, align 8, !tbaa !21
  %34 = load i8, ptr %3, align 1, !tbaa !11, !range !13, !noundef !14
  %35 = trunc i8 %34 to i1
  br i1 %35, label %36, label %43

36:                                               ; preds = %29
  %37 = load i64, ptr %6, align 8, !tbaa !21
  %38 = invoke noundef i32 @_ZN8simdjson8internal13binary_formatIdE10sign_indexEv()
          to label %39 unwind label %48

39:                                               ; preds = %36
  %40 = zext i32 %38 to i64
  %41 = shl i64 1, %40
  %42 = or i64 %37, %41
  br label %45

43:                                               ; preds = %29
  %44 = load i64, ptr %6, align 8, !tbaa !21
  br label %45

45:                                               ; preds = %43, %39
  %46 = phi i64 [ %42, %39 ], [ %44, %43 ]
  store i64 %46, ptr %6, align 8, !tbaa !21
  call void @llvm.lifetime.start.p0(i64 8, ptr %7) #10
  call void @llvm.memcpy.p0.p0.i64(ptr align 8 %7, ptr align 8 %6, i64 8, i1 false)
  %47 = load double, ptr %7, align 8, !tbaa !9
  call void @llvm.lifetime.end.p0(i64 8, ptr %7) #10
  call void @llvm.lifetime.end.p0(i64 8, ptr %6) #10
  call void @llvm.lifetime.end.p0(i64 16, ptr %4) #10
  call void @llvm.lifetime.end.p0(i64 1, ptr %3) #10
  ret double %47

48:                                               ; preds = %36, %22, %19
  %49 = landingpad { ptr, i32 }
          catch ptr null
  %50 = extractvalue { ptr, i32 } %49, 0
  call void @__clang_call_terminate(ptr %50) #56
  unreachable
}

; Function Attrs: mustprogress nounwind uwtable
define internal noundef zeroext i1 @_ZN8simdjson8fallback13numberparsing12_GLOBAL__N_120parse_float_fallbackEPKhPd(ptr noundef %0, ptr noundef %1) #2 {
  %3 = alloca ptr, align 8
  %4 = alloca ptr, align 8
  store ptr %0, ptr %3, align 8, !tbaa !4
  store ptr %1, ptr %4, align 8, !tbaa !629
  %5 = load ptr, ptr %3, align 8, !tbaa !4
  %6 = call noundef double @_ZN8simdjson8internal10from_charsEPKc(ptr noundef %5) #10
  %7 = load ptr, ptr %4, align 8, !tbaa !629
  store double %6, ptr %7, align 8, !tbaa !9
  %8 = load ptr, ptr %4, align 8, !tbaa !629
  %9 = load double, ptr %8, align 8, !tbaa !9
  %10 = call noundef double @_ZNSt14numeric_limitsIdE3maxEv() #10
  %11 = fcmp ogt double %9, %10
  br i1 %11, label %17, label %12

12:                                               ; preds = %2
  %13 = load ptr, ptr %4, align 8, !tbaa !629
  %14 = load double, ptr %13, align 8, !tbaa !9
  %15 = call noundef double @_ZNSt14numeric_limitsIdE6lowestEv() #10
  %16 = fcmp olt double %14, %15
  br label %17

17:                                               ; preds = %12, %2
  %18 = phi i1 [ true, %2 ], [ %16, %12 ]
  %19 = xor i1 %18, true
  ret i1 %19
}

; Function Attrs: mustprogress uwtable
define internal noundef i32 @_ZN8simdjson8fallback13numberparsingL18slow_float_parsingEPKhPd(ptr noundef %0, ptr noundef %1) #0 {
  %3 = alloca i32, align 4
  %4 = alloca ptr, align 8
  %5 = alloca ptr, align 8
  store ptr %0, ptr %4, align 8, !tbaa !4
  store ptr %1, ptr %5, align 8, !tbaa !629
  %6 = load ptr, ptr %4, align 8, !tbaa !4
  %7 = load ptr, ptr %5, align 8, !tbaa !629
  %8 = call noundef zeroext i1 @_ZN8simdjson8fallback13numberparsing12_GLOBAL__N_120parse_float_fallbackEPKhPd(ptr noundef %6, ptr noundef %7)
  br i1 %8, label %9, label %10

9:                                                ; preds = %2
  store i32 0, ptr %3, align 4
  br label %11

10:                                               ; preds = %2
  store i32 9, ptr %3, align 4
  br label %11

11:                                               ; preds = %10, %9
  %12 = load i32, ptr %3, align 4
  ret i32 %12
}