; Function Attrs: mustprogress nounwind uwtable
define internal fastcc noundef range(i32 0, 10) i32 @_ZN8simdjson8fallback13numberparsingL18slow_float_parsingEPKhPd(ptr noundef %0, ptr noundef nonnull writeonly captures(none) %1) unnamed_addr #6 personality ptr @__gxx_personality_v0 {
  %3 = alloca ptr, align 8
  %4 = alloca %"struct.simdjson::internal::decimal", align 4
  %5 = load i8, ptr %0, align 1, !tbaa !4
  %6 = icmp eq i8 %5, 45
  %spec.select.idx.i.i = zext i1 %6 to i64
  %spec.select.i.i = getelementptr inbounds nuw i8, ptr %0, i64 %spec.select.idx.i.i
  call void @llvm.lifetime.start.p0(i64 8, ptr nonnull %3)
  store ptr %spec.select.i.i, ptr %3, align 8, !tbaa !18
  call void @llvm.lifetime.start.p0(i64 780, ptr nonnull %4) #45
  call void @_ZN8simdjson8internal13parse_decimalERPKc(ptr dead_on_unwind nonnull writable sret(%"struct.simdjson::internal::decimal") align 4 %4, ptr noundef nonnull align 8 dereferenceable(8) %3) #45
  %7 = invoke { i64, i32 } @_ZN8simdjson8internal13compute_floatINS0_13binary_formatIdEEEENS0_17adjusted_mantissaERNS0_7decimalE(ptr noundef nonnull align 4 dereferenceable(780) %4)
          to label %_ZN8simdjson8fallback13numberparsing12_GLOBAL__N_120parse_float_fallbackEPKhPd.exit unwind label %8

8:                                                ; preds = %2
  %9 = landingpad { ptr, i32 }
          catch ptr null
  %10 = extractvalue { ptr, i32 } %9, 0
  call void @__clang_call_terminate(ptr %10) #46
  unreachable

_ZN8simdjson8fallback13numberparsing12_GLOBAL__N_120parse_float_fallbackEPKhPd.exit: ; preds = %2
  call void @llvm.lifetime.end.p0(i64 780, ptr nonnull %4) #45
  call void @llvm.lifetime.end.p0(i64 8, ptr nonnull %3)
  %.fca.0.extract.i.i = extractvalue { i64, i32 } %7, 0
  %.fca.1.extract.i.i = extractvalue { i64, i32 } %7, 1
  %11 = zext i32 %.fca.1.extract.i.i to i64
  %12 = shl i64 %11, 52
  %13 = or i64 %12, %.fca.0.extract.i.i
  %14 = or i64 %13, -9223372036854775808
  %spec.select9.i.i = select i1 %6, i64 %14, i64 %13
  %15 = bitcast i64 %spec.select9.i.i to double
  store i64 %spec.select9.i.i, ptr %1, align 8, !tbaa !189
  %16 = call double @llvm.fabs.f64(double %15)
  %17 = fcmp ule double %16, 0x7FEFFFFFFFFFFFFF
  %. = select i1 %17, i32 0, i32 9
  ret i32 %.
}